; Function Attrs: mustprogress nofree norecurse nosync nounwind willreturn memory(read, inaccessiblemem: none) uwtable
define dso_local noundef zeroext i1 @_ZN4Luau16ConstraintSolver24hasUnresolvedConstraintsEPKNS_4TypeE(ptr noundef nonnull readonly align 8 captures(none) dereferenceable(1032) %0, ptr noundef %1) local_unnamed_addr #8 align 2 {
  %3 = getelementptr inbounds nuw i8, ptr %0, i64 512
  %4 = getelementptr inbounds nuw i8, ptr %0, i64 528
  %5 = load i64, ptr %4, align 8, !tbaa !382
  %6 = icmp eq i64 %5, 0
  br i1 %6, label %_ZN4Luau12DenseHashMapIPKNS_4TypeEmNS_16DenseHashPointerESt8equal_toIS3_EE4findERKS3_.exit.thread, label %7

7:                                                ; preds = %2
  %8 = getelementptr inbounds nuw i8, ptr %0, i64 536
  %9 = load ptr, ptr %8, align 8, !tbaa !37
  %10 = icmp eq ptr %1, %9
  br i1 %10, label %_ZN4Luau12DenseHashMapIPKNS_4TypeEmNS_16DenseHashPointerESt8equal_toIS3_EE4findERKS3_.exit.thread, label %11

11:                                               ; preds = %7
  %12 = getelementptr inbounds nuw i8, ptr %0, i64 520
  %13 = load i64, ptr %12, align 8, !tbaa !383
  %14 = add i64 %13, -1
  %15 = ptrtoint ptr %1 to i64
  %16 = lshr i64 %15, 4
  %17 = lshr i64 %15, 9
  %18 = xor i64 %16, %17
  %19 = load ptr, ptr %3, align 8, !tbaa !384
  br label %20

20:                                               ; preds = %26, %11
  %.pn.i.i = phi i64 [ %18, %11 ], [ %28, %26 ]
  %.02028.i.i = phi i64 [ 0, %11 ], [ %27, %26 ]
  %.02129.i.i = and i64 %.pn.i.i, %14
  %21 = getelementptr inbounds nuw %"struct.std::pair.883", ptr %19, i64 %.02129.i.i
  %22 = load ptr, ptr %21, align 8, !tbaa !37
  %23 = icmp eq ptr %22, %1
  br i1 %23, label %_ZN4Luau12DenseHashMapIPKNS_4TypeEmNS_16DenseHashPointerESt8equal_toIS3_EE4findERKS3_.exit, label %24

24:                                               ; preds = %20
  %25 = icmp eq ptr %22, %9
  br i1 %25, label %_ZN4Luau12DenseHashMapIPKNS_4TypeEmNS_16DenseHashPointerESt8equal_toIS3_EE4findERKS3_.exit.thread, label %26

26:                                               ; preds = %24
  %27 = add i64 %.02028.i.i, 1
  %28 = add i64 %27, %.02129.i.i
  %.not.i.i = icmp ugt i64 %27, %14
  br i1 %.not.i.i, label %_ZN4Luau12DenseHashMapIPKNS_4TypeEmNS_16DenseHashPointerESt8equal_toIS3_EE4findERKS3_.exit.thread, label %20, !llvm.loop !385

_ZN4Luau12DenseHashMapIPKNS_4TypeEmNS_16DenseHashPointerESt8equal_toIS3_EE4findERKS3_.exit: ; preds = %20
  %29 = getelementptr inbounds nuw i8, ptr %21, i64 8
  %30 = load i64, ptr %29, align 8, !tbaa !51
  %31 = icmp ne i64 %30, 0
  br label %_ZN4Luau12DenseHashMapIPKNS_4TypeEmNS_16DenseHashPointerESt8equal_toIS3_EE4findERKS3_.exit.thread

_ZN4Luau12DenseHashMapIPKNS_4TypeEmNS_16DenseHashPointerESt8equal_toIS3_EE4findERKS3_.exit.thread: ; preds = %24, %26, %7, %2, %_ZN4Luau12DenseHashMapIPKNS_4TypeEmNS_16DenseHashPointerESt8equal_toIS3_EE4findERKS3_.exit
  %spec.select = phi i1 [ %31, %_ZN4Luau12DenseHashMapIPKNS_4TypeEmNS_16DenseHashPointerESt8equal_toIS3_EE4findERKS3_.exit ], [ false, %2 ], [ false, %7 ], [ false, %26 ], [ false, %24 ]
  ret i1 %spec.select
}